target datalayout = "e-m:e-p270:32:32-p271:32:32-p272:64:64-i64:64-i128:128-f80:128-n8:16:32:64-S128"
target triple = "x86_64-pc-linux-gnu"

%"class.Luau::CstNode" = type { i32 }
%"struct.Luau::AstArray.0" = type { ptr, i64 }
%"struct.Luau::AstArray.2" = type { ptr, i64 }
%"class.Luau::CstExprInterpString" = type { %"class.Luau::CstNode", %"struct.Luau::AstArray.2", %"struct.Luau::AstArray.0" }

@_ZN4Luau7CstRttiINS_19CstExprInterpStringEE5valueE = linkonce_odr dso_local global i32 0, comdat, align 4

; Function Attrs: mustprogress nounwind uwtable
define linkonce_odr dso_local void @_ZN4Luau7CstNodeC2Ei(ptr noundef nonnull align 4 dereferenceable(4) %0, i32 noundef %1) unnamed_addr #3 comdat align 2 {
  %3 = alloca ptr, align 8
  %4 = alloca i32, align 4
  store ptr %0, ptr %3, align 8, !tbaa !18
  store i32 %1, ptr %4, align 4, !tbaa !4
  %5 = load ptr, ptr %3, align 8
  %6 = getelementptr inbounds nuw %"class.Luau::CstNode", ptr %5, i32 0, i32 0
  %7 = load i32, ptr %4, align 4, !tbaa !4
  store i32 %7, ptr %6, align 4, !tbaa !20
  ret void
}

; Function Attrs: mustprogress nounwind uwtable
define linkonce_odr dso_local noundef i32 @_ZN4Luau19CstExprInterpString13CstClassIndexEv() #3 comdat align 2 {
  %1 = load i32, ptr @_ZN4Luau7CstRttiINS_19CstExprInterpStringEE5valueE, align 4, !tbaa !4
  ret i32 %1
}

; Function Attrs: mustprogress uwtable
define dso_local void @_ZN4Luau19CstExprInterpStringC2ENS_8AstArrayINS1_IcEEEENS1_INS_8PositionEEE(ptr noundef nonnull align 8 dereferenceable(40) %0, ptr %1, i64 %2, ptr %3, i64 %4) unnamed_addr #2 align 2 {
  %6 = alloca %"struct.Luau::AstArray.2", align 8
  %7 = alloca %"struct.Luau::AstArray.0", align 8
  %8 = alloca ptr, align 8
  %9 = getelementptr inbounds nuw { ptr, i64 }, ptr %6, i32 0, i32 0
  store ptr %1, ptr %9, align 8
  %10 = getelementptr inbounds nuw { ptr, i64 }, ptr %6, i32 0, i32 1
  store i64 %2, ptr %10, align 8
  %11 = getelementptr inbounds nuw { ptr, i64 }, ptr %7, i32 0, i32 0
  store ptr %3, ptr %11, align 8
  %12 = getelementptr inbounds nuw { ptr, i64 }, ptr %7, i32 0, i32 1
  store i64 %4, ptr %12, align 8
  store ptr %0, ptr %8, align 8, !tbaa !58
  %13 = load ptr, ptr %8, align 8
  %14 = call noundef i32 @_ZN4Luau19CstExprInterpString13CstClassIndexEv()
  call void @_ZN4Luau7CstNodeC2Ei(ptr noundef nonnull align 4 dereferenceable(4) %13, i32 noundef %14)
  %15 = getelementptr inbounds nuw %"class.Luau::CstExprInterpString", ptr %13, i32 0, i32 1
  call void @llvm.memcpy.p0.p0.i64(ptr align 8 %15, ptr align 8 %6, i64 16, i1 false), !tbaa.struct !60
  %16 = getelementptr inbounds nuw %"class.Luau::CstExprInterpString", ptr %13, i32 0, i32 2
  call void @llvm.memcpy.p0.p0.i64(ptr align 8 %16, ptr align 8 %7, i64 16, i1 false), !tbaa.struct !32
  ret void
}